; Function Attrs: nounwind uwtable
define dso_local void @pull_up_subqueries(ptr noundef %0) local_unnamed_addr #0 {
  %2 = getelementptr inbounds nuw i8, ptr %0, i64 8
  %3 = load ptr, ptr %2, align 8
  %4 = getelementptr inbounds nuw i8, ptr %3, i64 80
  %5 = load ptr, ptr %4, align 8
  %6 = tail call fastcc ptr @pull_up_subqueries_recurse(ptr noundef %0, ptr noundef %5, ptr noundef null, ptr noundef null)
  %7 = load ptr, ptr %2, align 8
  %8 = getelementptr inbounds nuw i8, ptr %7, i64 80
  store ptr %6, ptr %8, align 8
  ret void
}